; ModuleID = '26/587.c'
source_filename = "26/587.c"
target datalayout = "e-m:e-p270:32:32-p271:32:32-p272:64:64-i64:64-f80:128-n8:16:32:64-S128"
target triple = "x86_64-pc-linux-gnu"

; Function Attrs: noinline nounwind uwtable
define dso_local i8* @f(i8* %0, i8* %1) #0 {
  %3 = alloca i8*, align 8
  %4 = alloca i8*, align 8
  %5 = alloca i32, align 4
  %6 = alloca i32, align 4
  store i8* %0, i8** %3, align 8
  store i8* %1, i8** %4, align 8
  store i32 1, i32* %6, align 4
  %7 = load i8*, i8** %3, align 8
  %8 = getelementptr inbounds i8, i8* %7, i64 0
  %9 = load i8, i8* %8, align 1
  %10 = load i8*, i8** %4, align 8
  %11 = getelementptr inbounds i8, i8* %10, i64 0
  store i8 %9, i8* %11, align 1
  store i32 1, i32* %5, align 4
  br label %12

12:                                               ; preds = %50, %2
  %13 = load i8*, i8** %3, align 8
  %14 = load i32, i32* %5, align 4
  %15 = sext i32 %14 to i64
  %16 = getelementptr inbounds i8, i8* %13, i64 %15
  %17 = load i8, i8* %16, align 1
  %18 = icmp ne i8 %17, 0
  br i1 %18, label %19, label %53

19:                                               ; preds = %12
  %20 = load i8*, i8** %3, align 8
  %21 = load i32, i32* %5, align 4
  %22 = sext i32 %21 to i64
  %23 = getelementptr inbounds i8, i8* %20, i64 %22
  %24 = load i8, i8* %23, align 1
  %25 = load i8*, i8** %4, align 8
  %26 = load i32, i32* %6, align 4
  %27 = sext i32 %26 to i64
  %28 = getelementptr inbounds i8, i8* %25, i64 %27
  store i8 %24, i8* %28, align 1
  %29 = load i8*, i8** %3, align 8
  %30 = load i32, i32* %5, align 4
  %31 = sub nsw i32 %30, 1
  %32 = sext i32 %31 to i64
  %33 = getelementptr inbounds i8, i8* %29, i64 %32
  %34 = load i8, i8* %33, align 1
  %35 = sext i8 %34 to i32
  %36 = icmp eq i32 %35, 32
  br i1 %36, label %37, label %46

37:                                               ; preds = %19
  %38 = load i8*, i8** %3, align 8
  %39 = load i32, i32* %5, align 4
  %40 = sext i32 %39 to i64
  %41 = getelementptr inbounds i8, i8* %38, i64 %40
  %42 = load i8, i8* %41, align 1
  %43 = sext i8 %42 to i32
  %44 = icmp eq i32 %43, 32
  br i1 %44, label %45, label %46

45:                                               ; preds = %37
  br label %49

46:                                               ; preds = %37, %19
  %47 = load i32, i32* %6, align 4
  %48 = add nsw i32 %47, 1
  store i32 %48, i32* %6, align 4
  br label %49

49:                                               ; preds = %46, %45
  br label %50

50:                                               ; preds = %49
  %51 = load i32, i32* %5, align 4
  %52 = add nsw i32 %51, 1
  store i32 %52, i32* %5, align 4
  br label %12

53:                                               ; preds = %12
  %54 = load i8*, i8** %3, align 8
  %55 = load i32, i32* %5, align 4
  %56 = sext i32 %55 to i64
  %57 = getelementptr inbounds i8, i8* %54, i64 %56
  %58 = load i8, i8* %57, align 1
  %59 = load i8*, i8** %4, align 8
  %60 = load i32, i32* %6, align 4
  %61 = sext i32 %60 to i64
  %62 = getelementptr inbounds i8, i8* %59, i64 %61
  store i8 %58, i8* %62, align 1
  %63 = load i8*, i8** %4, align 8
  ret i8* %63
}

; Function Attrs: noinline nounwind uwtable
define dso_local i32 @main() #0 {
  %1 = alloca i32, align 4
  %2 = alloca [110 x i8], align 16
  %3 = alloca [110 x i8], align 16
  store i32 0, i32* %1, align 4
  %4 = getelementptr inbounds [110 x i8], [110 x i8]* %2, i64 0, i64 0
  %5 = call i32 (i8*, ...) bitcast (i32 (...)* @gets to i32 (i8*, ...)*)(i8* %4)
  %6 = getelementptr inbounds [110 x i8], [110 x i8]* %2, i64 0, i64 0
  %7 = getelementptr inbounds [110 x i8], [110 x i8]* %3, i64 0, i64 0
  %8 = call i8* @f(i8* %6, i8* %7)
  %9 = call i32 @puts(i8* %8)
  ret i32 0
}

declare dso_local i32 @gets(...) #1

declare dso_local i32 @puts(i8*) #1


!llvm.module.flags = !{!0}
!llvm.ident = !{!1}

!0 = !{i32 1, !"wchar_size", i32 4}
!1 = !{!"clang version 10.0.0-4ubuntu1 "}
